target datalayout = "e-m:e-p270:32:32-p271:32:32-p272:64:64-i64:64-i128:128-f80:128-n8:16:32:64-S128"
target triple = "x86_64-pc-linux-gnu"

; Function Attrs: nounwind uwtable
define internal void @chrRangeToJpeg16_c(ptr noundef %0, ptr noundef %1, i32 noundef %2, i32 noundef %3, i64 noundef %4) #0 {
  %6 = alloca ptr, align 8
  %7 = alloca ptr, align 8
  %8 = alloca i32, align 4
  %9 = alloca i32, align 4
  %10 = alloca i64, align 8
  %11 = alloca i32, align 4
  %12 = alloca ptr, align 8
  %13 = alloca ptr, align 8
  %14 = alloca i32, align 4
  %15 = alloca i32, align 4
  store ptr %0, ptr %6, align 8, !tbaa !104
  store ptr %1, ptr %7, align 8, !tbaa !104
  store i32 %2, ptr %8, align 4, !tbaa !14
  store i32 %3, ptr %9, align 4, !tbaa !14
  store i64 %4, ptr %10, align 8, !tbaa !105
  call void @llvm.lifetime.start.p0(i64 4, ptr %11) #11
  call void @llvm.lifetime.start.p0(i64 8, ptr %12) #11
  %16 = load ptr, ptr %6, align 8, !tbaa !104
  store ptr %16, ptr %12, align 8, !tbaa !12
  call void @llvm.lifetime.start.p0(i64 8, ptr %13) #11
  %17 = load ptr, ptr %7, align 8, !tbaa !104
  store ptr %17, ptr %13, align 8, !tbaa !12
  store i32 0, ptr %11, align 4, !tbaa !14
  br label %18

18:                                               ; preds = %71, %5
  %19 = load i32, ptr %11, align 4, !tbaa !14
  %20 = load i32, ptr %8, align 4, !tbaa !14
  %21 = icmp slt i32 %19, %20
  br i1 %21, label %22, label %74

22:                                               ; preds = %18
  call void @llvm.lifetime.start.p0(i64 4, ptr %14) #11
  %23 = load ptr, ptr %12, align 8, !tbaa !12
  %24 = load i32, ptr %11, align 4, !tbaa !14
  %25 = sext i32 %24 to i64
  %26 = getelementptr inbounds i32, ptr %23, i64 %25
  %27 = load i32, ptr %26, align 4, !tbaa !14
  %28 = sext i32 %27 to i64
  %29 = load i32, ptr %9, align 4, !tbaa !14
  %30 = zext i32 %29 to i64
  %31 = mul nsw i64 %28, %30
  %32 = load i64, ptr %10, align 8, !tbaa !105
  %33 = add nsw i64 %31, %32
  %34 = ashr i64 %33, 18
  %35 = trunc i64 %34 to i32
  store i32 %35, ptr %14, align 4, !tbaa !14
  call void @llvm.lifetime.start.p0(i64 4, ptr %15) #11
  %36 = load ptr, ptr %13, align 8, !tbaa !12
  %37 = load i32, ptr %11, align 4, !tbaa !14
  %38 = sext i32 %37 to i64
  %39 = getelementptr inbounds i32, ptr %36, i64 %38
  %40 = load i32, ptr %39, align 4, !tbaa !14
  %41 = sext i32 %40 to i64
  %42 = load i32, ptr %9, align 4, !tbaa !14
  %43 = zext i32 %42 to i64
  %44 = mul nsw i64 %41, %43
  %45 = load i64, ptr %10, align 8, !tbaa !105
  %46 = add nsw i64 %44, %45
  %47 = ashr i64 %46, 18
  %48 = trunc i64 %47 to i32
  store i32 %48, ptr %15, align 4, !tbaa !14
  %49 = load i32, ptr %14, align 4, !tbaa !14
  %50 = icmp sgt i32 %49, 524287
  br i1 %50, label %51, label %52

51:                                               ; preds = %22
  br label %54

52:                                               ; preds = %22
  %53 = load i32, ptr %14, align 4, !tbaa !14
  br label %54

54:                                               ; preds = %52, %51
  %55 = phi i32 [ 524287, %51 ], [ %53, %52 ]
  %56 = load ptr, ptr %12, align 8, !tbaa !12
  %57 = load i32, ptr %11, align 4, !tbaa !14
  %58 = sext i32 %57 to i64
  %59 = getelementptr inbounds i32, ptr %56, i64 %58
  store i32 %55, ptr %59, align 4, !tbaa !14
  %60 = load i32, ptr %15, align 4, !tbaa !14
  %61 = icmp sgt i32 %60, 524287
  br i1 %61, label %62, label %63

62:                                               ; preds = %54
  br label %65

63:                                               ; preds = %54
  %64 = load i32, ptr %15, align 4, !tbaa !14
  br label %65

65:                                               ; preds = %63, %62
  %66 = phi i32 [ 524287, %62 ], [ %64, %63 ]
  %67 = load ptr, ptr %13, align 8, !tbaa !12
  %68 = load i32, ptr %11, align 4, !tbaa !14
  %69 = sext i32 %68 to i64
  %70 = getelementptr inbounds i32, ptr %67, i64 %69
  store i32 %66, ptr %70, align 4, !tbaa !14
  call void @llvm.lifetime.end.p0(i64 4, ptr %15) #11
  call void @llvm.lifetime.end.p0(i64 4, ptr %14) #11
  br label %71

71:                                               ; preds = %65
  %72 = load i32, ptr %11, align 4, !tbaa !14
  %73 = add nsw i32 %72, 1
  store i32 %73, ptr %11, align 4, !tbaa !14
  br label %18, !llvm.loop !113

74:                                               ; preds = %18
  call void @llvm.lifetime.end.p0(i64 8, ptr %13) #11
  call void @llvm.lifetime.end.p0(i64 8, ptr %12) #11
  call void @llvm.lifetime.end.p0(i64 4, ptr %11) #11
  ret void
}