; Function Attrs: nofree norecurse nosync nounwind memory(argmem: readwrite) uwtable
define internal void @chrRangeToJpeg16_c(ptr noundef captures(none) %0, ptr noundef captures(none) %1, i32 noundef %2, i32 noundef %3, i64 noundef %4) #6 {
  %6 = icmp sgt i32 %2, 0
  br i1 %6, label %.lr.ph, label %._crit_edge

.lr.ph:                                           ; preds = %5
  %7 = zext i32 %3 to i64
  %wide.trip.count = zext nneg i32 %2 to i64
  br label %8

8:                                                ; preds = %.lr.ph, %8
  %indvars.iv = phi i64 [ 0, %.lr.ph ], [ %indvars.iv.next, %8 ]
  %9 = getelementptr inbounds nuw i32, ptr %0, i64 %indvars.iv
  %10 = load i32, ptr %9, align 4, !tbaa !49
  %11 = sext i32 %10 to i64
  %12 = mul nsw i64 %11, %7
  %13 = add nsw i64 %12, %4
  %14 = lshr i64 %13, 18
  %15 = trunc i64 %14 to i32
  %16 = getelementptr inbounds nuw i32, ptr %1, i64 %indvars.iv
  %17 = load i32, ptr %16, align 4, !tbaa !49
  %18 = sext i32 %17 to i64
  %19 = mul nsw i64 %18, %7
  %20 = add nsw i64 %19, %4
  %21 = lshr i64 %20, 18
  %22 = trunc i64 %21 to i32
  %23 = tail call i32 @llvm.smin.i32(i32 %15, i32 524287)
  store i32 %23, ptr %9, align 4, !tbaa !49
  %24 = tail call i32 @llvm.smin.i32(i32 %22, i32 524287)
  store i32 %24, ptr %16, align 4, !tbaa !49
  %indvars.iv.next = add nuw nsw i64 %indvars.iv, 1
  %exitcond.not = icmp eq i64 %indvars.iv.next, %wide.trip.count
  br i1 %exitcond.not, label %._crit_edge, label %8, !llvm.loop !103

._crit_edge:                                      ; preds = %8, %5
  ret void
}